target datalayout = "e-m:e-p270:32:32-p271:32:32-p272:64:64-i64:64-i128:128-f80:128-n8:16:32:64-S128"
target triple = "x86_64-pc-linux-gnu"

%class.decl_plugin = type <{ ptr, ptr, i32, [4 x i8] }>

@.str.18 = private unnamed_addr constant [31 x i8] c"invalid datatype operator kind\00", align 1

; Function Attrs: mustprogress uwtable
define hidden noundef ptr @_ZN8datatype4decl6plugin12mk_func_declEijPK9parameterjPKP4sortS6_(ptr noundef nonnull align 8 dereferenceable(360) %0, i32 noundef %1, i32 noundef %2, ptr noundef %3, i32 noundef %4, ptr noundef %5, ptr noundef %6) unnamed_addr #4 align 2 {
  %8 = alloca ptr, align 8
  %9 = alloca ptr, align 8
  %10 = alloca i32, align 4
  %11 = alloca i32, align 4
  %12 = alloca ptr, align 8
  %13 = alloca i32, align 4
  %14 = alloca ptr, align 8
  %15 = alloca ptr, align 8
  store ptr %0, ptr %9, align 8, !tbaa !160
  store i32 %1, ptr %10, align 4, !tbaa !22
  store i32 %2, ptr %11, align 4, !tbaa !22
  store ptr %3, ptr %12, align 8, !tbaa !47
  store i32 %4, ptr %13, align 4, !tbaa !22
  store ptr %5, ptr %14, align 8, !tbaa !46
  store ptr %6, ptr %15, align 8, !tbaa !23
  %16 = load ptr, ptr %9, align 8
  %17 = load i32, ptr %10, align 4, !tbaa !22
  switch i32 %17, label %53 [
    i32 0, label %18
    i32 1, label %25
    i32 2, label %32
    i32 3, label %39
    i32 4, label %46
  ]

18:                                               ; preds = %7
  %19 = load i32, ptr %11, align 4, !tbaa !22
  %20 = load ptr, ptr %12, align 8, !tbaa !47
  %21 = load i32, ptr %13, align 4, !tbaa !22
  %22 = load ptr, ptr %14, align 8, !tbaa !46
  %23 = load ptr, ptr %15, align 8, !tbaa !23
  %24 = call noundef ptr @_ZN8datatype4decl6plugin14mk_constructorEjPK9parameterjPKP4sortS6_(ptr noundef nonnull align 8 dereferenceable(360) %16, i32 noundef %19, ptr noundef %20, i32 noundef %21, ptr noundef %22, ptr noundef %23)
  store ptr %24, ptr %8, align 8
  br label %56

25:                                               ; preds = %7
  %26 = load i32, ptr %11, align 4, !tbaa !22
  %27 = load ptr, ptr %12, align 8, !tbaa !47
  %28 = load i32, ptr %13, align 4, !tbaa !22
  %29 = load ptr, ptr %14, align 8, !tbaa !46
  %30 = load ptr, ptr %15, align 8, !tbaa !23
  %31 = call noundef ptr @_ZN8datatype4decl6plugin13mk_recognizerEjPK9parameterjPKP4sortS6_(ptr noundef nonnull align 8 dereferenceable(360) %16, i32 noundef %26, ptr noundef %27, i32 noundef %28, ptr noundef %29, ptr noundef %30)
  store ptr %31, ptr %8, align 8
  br label %56

32:                                               ; preds = %7
  %33 = load i32, ptr %11, align 4, !tbaa !22
  %34 = load ptr, ptr %12, align 8, !tbaa !47
  %35 = load i32, ptr %13, align 4, !tbaa !22
  %36 = load ptr, ptr %14, align 8, !tbaa !46
  %37 = load ptr, ptr %15, align 8, !tbaa !23
  %38 = call noundef ptr @_ZN8datatype4decl6plugin5mk_isEjPK9parameterjPKP4sortS6_(ptr noundef nonnull align 8 dereferenceable(360) %16, i32 noundef %33, ptr noundef %34, i32 noundef %35, ptr noundef %36, ptr noundef %37)
  store ptr %38, ptr %8, align 8
  br label %56

39:                                               ; preds = %7
  %40 = load i32, ptr %11, align 4, !tbaa !22
  %41 = load ptr, ptr %12, align 8, !tbaa !47
  %42 = load i32, ptr %13, align 4, !tbaa !22
  %43 = load ptr, ptr %14, align 8, !tbaa !46
  %44 = load ptr, ptr %15, align 8, !tbaa !23
  %45 = call noundef ptr @_ZN8datatype4decl6plugin11mk_accessorEjPK9parameterjPKP4sortS6_(ptr noundef nonnull align 8 dereferenceable(360) %16, i32 noundef %40, ptr noundef %41, i32 noundef %42, ptr noundef %43, ptr noundef %44)
  store ptr %45, ptr %8, align 8
  br label %56

46:                                               ; preds = %7
  %47 = load i32, ptr %11, align 4, !tbaa !22
  %48 = load ptr, ptr %12, align 8, !tbaa !47
  %49 = load i32, ptr %13, align 4, !tbaa !22
  %50 = load ptr, ptr %14, align 8, !tbaa !46
  %51 = load ptr, ptr %15, align 8, !tbaa !23
  %52 = call noundef ptr @_ZN8datatype4decl6plugin15mk_update_fieldEjPK9parameterjPKP4sortS6_(ptr noundef nonnull align 8 dereferenceable(360) %16, i32 noundef %47, ptr noundef %48, i32 noundef %49, ptr noundef %50, ptr noundef %51)
  store ptr %52, ptr %8, align 8
  br label %56

53:                                               ; preds = %7
  %54 = getelementptr inbounds nuw %class.decl_plugin, ptr %16, i32 0, i32 1
  %55 = load ptr, ptr %54, align 8, !tbaa !241
  call void @_ZN11ast_manager15raise_exceptionEPKc(ptr noundef nonnull align 8 dereferenceable(976) %55, ptr noundef @.str.18) #24
  unreachable

56:                                               ; preds = %46, %39, %32, %25, %18
  %57 = load ptr, ptr %8, align 8
  ret ptr %57
}