; Function Attrs: mustprogress uwtable
define hidden noundef ptr @_ZN8datatype4decl6plugin12mk_func_declEijPK9parameterjPKP4sortS6_(ptr noundef nonnull align 8 captures(none) dereferenceable(360) %0, i32 noundef %1, i32 noundef %2, ptr noundef %3, i32 noundef %4, ptr noundef %5, ptr noundef %6) unnamed_addr #4 align 2 {
  switch i32 %1, label %18 [
    i32 0, label %8
    i32 1, label %10
    i32 2, label %12
    i32 3, label %14
    i32 4, label %16
  ]

8:                                                ; preds = %7
  %9 = tail call noundef ptr @_ZN8datatype4decl6plugin14mk_constructorEjPK9parameterjPKP4sortS6_(ptr noundef nonnull align 8 dereferenceable(360) %0, i32 noundef %2, ptr noundef %3, i32 noundef %4, ptr noundef %5, ptr noundef %6)
  br label %21

10:                                               ; preds = %7
  %11 = tail call noundef ptr @_ZN8datatype4decl6plugin13mk_recognizerEjPK9parameterjPKP4sortS6_(ptr noundef nonnull align 8 dereferenceable(360) %0, i32 noundef %2, ptr noundef %3, i32 noundef %4, ptr noundef %5, ptr poison)
  br label %21

12:                                               ; preds = %7
  %13 = tail call noundef ptr @_ZN8datatype4decl6plugin5mk_isEjPK9parameterjPKP4sortS6_(ptr noundef nonnull align 8 dereferenceable(360) %0, i32 noundef %2, ptr noundef %3, i32 noundef %4, ptr noundef %5, ptr poison)
  br label %21

14:                                               ; preds = %7
  %15 = tail call noundef ptr @_ZN8datatype4decl6plugin11mk_accessorEjPK9parameterjPKP4sortS6_(ptr noundef nonnull align 8 dereferenceable(360) %0, i32 noundef %2, ptr noundef %3, i32 noundef %4, ptr noundef %5, ptr noundef %6)
  br label %21

16:                                               ; preds = %7
  %17 = tail call noundef ptr @_ZN8datatype4decl6plugin15mk_update_fieldEjPK9parameterjPKP4sortS6_(ptr noundef nonnull align 8 dereferenceable(360) %0, i32 noundef %2, ptr noundef %3, i32 noundef %4, ptr noundef %5, ptr poison)
  br label %21

18:                                               ; preds = %7
  %19 = getelementptr inbounds nuw i8, ptr %0, i64 8
  %20 = load ptr, ptr %19, align 8, !tbaa !253
  tail call void @_ZN11ast_manager15raise_exceptionEPKc(ptr noundef nonnull align 8 dereferenceable(976) %20, ptr noundef nonnull @.str.18) #30
  unreachable

21:                                               ; preds = %16, %14, %12, %10, %8
  %.0 = phi ptr [ %17, %16 ], [ %15, %14 ], [ %13, %12 ], [ %11, %10 ], [ %9, %8 ]
  ret ptr %.0
}